target datalayout = "e-m:e-p270:32:32-p271:32:32-p272:64:64-i64:64-i128:128-f80:128-n8:16:32:64-S128"
target triple = "x86_64-pc-linux-gnu"

%struct.slurmdb_qos_rec_t = type { i64, ptr, i32, i32, i32, i32, i32, i32, ptr, ptr, ptr, ptr, ptr, ptr, i32, double, i32, i32, i32, i32, i32, i32, ptr, ptr, ptr, ptr, ptr, ptr, ptr, ptr, ptr, ptr, ptr, ptr, ptr, ptr, i32, i32, ptr, ptr, ptr, ptr, ptr, i16, i32, i32, ptr, ptr, double, double }
%struct.slurmdb_qos_cond_t = type { ptr, i16, ptr, ptr, ptr, i16 }
%struct.local_mod_qos_t = type { ptr, ptr, ptr }

@db_conn = external global ptr, align 8
@.str.122 = private unnamed_addr constant [3 x i8] c"%s\00", align 1

; Function Attrs: nounwind uwtable
define internal i32 @_mod_qos(ptr noundef %0, ptr noundef %1) #0 {
  %3 = alloca ptr, align 8
  %4 = alloca ptr, align 8
  %5 = alloca ptr, align 8
  %6 = alloca ptr, align 8
  %7 = alloca ptr, align 8
  %8 = alloca ptr, align 8
  %9 = alloca %struct.slurmdb_qos_cond_t, align 8
  store ptr %0, ptr %3, align 8
  store ptr %1, ptr %4, align 8
  call void @llvm.lifetime.start.p0(i64 8, ptr %5) #9
  %10 = load ptr, ptr %3, align 8
  store ptr %10, ptr %5, align 8
  call void @llvm.lifetime.start.p0(i64 8, ptr %6) #9
  %11 = load ptr, ptr %5, align 8
  %12 = getelementptr inbounds nuw %struct.local_mod_qos_t, ptr %11, i32 0, i32 1
  %13 = load ptr, ptr %12, align 8
  store ptr %13, ptr %6, align 8
  call void @llvm.lifetime.start.p0(i64 8, ptr %7) #9
  %14 = load ptr, ptr %5, align 8
  %15 = getelementptr inbounds nuw %struct.local_mod_qos_t, ptr %14, i32 0, i32 2
  %16 = load ptr, ptr %15, align 8
  store ptr %16, ptr %7, align 8
  call void @llvm.lifetime.start.p0(i64 8, ptr %8) #9
  store ptr null, ptr %8, align 8
  call void @llvm.lifetime.start.p0(i64 48, ptr %9) #9
  call void @llvm.memset.p0.i64(ptr align 8 %9, i8 0, i64 48, i1 false)
  %17 = getelementptr inbounds nuw %struct.slurmdb_qos_cond_t, ptr %9, i32 0, i32 4
  %18 = call ptr @list_create(ptr noundef null)
  store ptr %18, ptr %17, align 8
  %19 = getelementptr inbounds nuw %struct.slurmdb_qos_cond_t, ptr %9, i32 0, i32 4
  %20 = load ptr, ptr %19, align 8
  %21 = load ptr, ptr %7, align 8
  %22 = getelementptr inbounds nuw %struct.slurmdb_qos_rec_t, ptr %21, i32 0, i32 40
  %23 = load ptr, ptr %22, align 8
  call void @list_push(ptr noundef %20, ptr noundef %23)
  call void @notice_thread_init()
  %24 = load ptr, ptr @db_conn, align 8
  %25 = load ptr, ptr %6, align 8
  %26 = call ptr @slurmdb_qos_modify(ptr noundef %24, ptr noundef %9, ptr noundef %25)
  store ptr %26, ptr %8, align 8
  call void @notice_thread_fini()
  br label %27

27:                                               ; preds = %2
  %28 = getelementptr inbounds nuw %struct.slurmdb_qos_cond_t, ptr %9, i32 0, i32 4
  %29 = load ptr, ptr %28, align 8
  %30 = icmp ne ptr %29, null
  br i1 %30, label %31, label %34

31:                                               ; preds = %27
  %32 = getelementptr inbounds nuw %struct.slurmdb_qos_cond_t, ptr %9, i32 0, i32 4
  %33 = load ptr, ptr %32, align 8
  call void @list_destroy(ptr noundef %33)
  br label %34

34:                                               ; preds = %31, %27
  %35 = getelementptr inbounds nuw %struct.slurmdb_qos_cond_t, ptr %9, i32 0, i32 4
  store ptr null, ptr %35, align 8
  br label %36

36:                                               ; preds = %34
  br label %37

37:                                               ; preds = %36
  %38 = load ptr, ptr %8, align 8
  %39 = icmp ne ptr %38, null
  br i1 %39, label %40, label %53

40:                                               ; preds = %37
  %41 = load ptr, ptr %5, align 8
  %42 = getelementptr inbounds nuw %struct.local_mod_qos_t, ptr %41, i32 0, i32 0
  %43 = load ptr, ptr %42, align 8
  %44 = call i32 (ptr, ...) @printf(ptr noundef @.str.122, ptr noundef %43)
  br label %45

45:                                               ; preds = %40
  %46 = load ptr, ptr %8, align 8
  %47 = icmp ne ptr %46, null
  br i1 %47, label %48, label %50

48:                                               ; preds = %45
  %49 = load ptr, ptr %8, align 8
  call void @list_destroy(ptr noundef %49)
  br label %50

50:                                               ; preds = %48, %45
  store ptr null, ptr %8, align 8
  br label %51

51:                                               ; preds = %50
  br label %52

52:                                               ; preds = %51
  br label %53

53:                                               ; preds = %52, %37
  call void @llvm.lifetime.end.p0(i64 48, ptr %9) #9
  call void @llvm.lifetime.end.p0(i64 8, ptr %8) #9
  call void @llvm.lifetime.end.p0(i64 8, ptr %7) #9
  call void @llvm.lifetime.end.p0(i64 8, ptr %6) #9
  call void @llvm.lifetime.end.p0(i64 8, ptr %5) #9
  ret i32 0
}