; Function Attrs: nounwind uwtable
define internal noundef i32 @_mod_qos(ptr noundef readonly captures(none) %0, ptr readnone captures(none) %1) #0 {
  %3 = alloca %struct.slurmdb_qos_cond_t, align 8
  %4 = getelementptr inbounds nuw i8, ptr %0, i64 8
  %5 = load ptr, ptr %4, align 8
  %6 = getelementptr inbounds nuw i8, ptr %0, i64 16
  %7 = load ptr, ptr %6, align 8
  call void @llvm.lifetime.start.p0(i64 48, ptr nonnull %3) #12
  call void @llvm.memset.p0.i64(ptr noundef nonnull align 8 dereferenceable(48) %3, i8 0, i64 48, i1 false)
  %8 = getelementptr inbounds nuw i8, ptr %3, i64 32
  %9 = tail call ptr @list_create(ptr noundef null) #12
  store ptr %9, ptr %8, align 8
  %10 = getelementptr inbounds nuw i8, ptr %7, i64 264
  %11 = load ptr, ptr %10, align 8
  tail call void @list_push(ptr noundef %9, ptr noundef %11) #12
  tail call void @notice_thread_init() #12
  %12 = load ptr, ptr @db_conn, align 8
  %13 = call ptr @slurmdb_qos_modify(ptr noundef %12, ptr noundef nonnull %3, ptr noundef %5) #12
  call void @notice_thread_fini() #12
  %14 = load ptr, ptr %8, align 8
  %.not = icmp eq ptr %14, null
  br i1 %.not, label %16, label %15

15:                                               ; preds = %2
  call void @list_destroy(ptr noundef nonnull %14) #12
  br label %16

16:                                               ; preds = %15, %2
  store ptr null, ptr %8, align 8
  %.not10 = icmp eq ptr %13, null
  br i1 %.not10, label %20, label %17

17:                                               ; preds = %16
  %18 = load ptr, ptr %0, align 8
  %19 = call i32 (ptr, ...) @printf(ptr noundef nonnull dereferenceable(1) @.str.122, ptr noundef %18)
  call void @list_destroy(ptr noundef nonnull %13) #12
  br label %20

20:                                               ; preds = %17, %16
  call void @llvm.lifetime.end.p0(i64 48, ptr nonnull %3) #12
  ret i32 0
}